; Function Attrs: mustprogress nounwind uwtable
define void @_ZN13colvarbias_tiD2Ev(ptr noundef nonnull align 8 dereferenceable(72) %0, ptr nocapture noundef readonly %1) unnamed_addr #3 align 2 personality ptr @__gxx_personality_v0 {
  %3 = load ptr, ptr %1, align 8
  store ptr %3, ptr %0, align 8
  %4 = getelementptr inbounds i8, ptr %1, i64 8
  %5 = load ptr, ptr %4, align 8
  %6 = getelementptr i8, ptr %3, i64 -24
  %7 = load i64, ptr %6, align 8
  %8 = getelementptr inbounds i8, ptr %0, i64 %7
  store ptr %5, ptr %8, align 8
  %9 = getelementptr inbounds i8, ptr %1, i64 16
  %10 = load ptr, ptr %9, align 8
  %11 = load ptr, ptr %0, align 8
  %12 = getelementptr i8, ptr %11, i64 -32
  %13 = load i64, ptr %12, align 8
  %14 = getelementptr inbounds i8, ptr %0, i64 %13
  store ptr %10, ptr %14, align 8
  %15 = getelementptr inbounds i8, ptr %1, i64 24
  %16 = load ptr, ptr %15, align 8
  %17 = load ptr, ptr %0, align 8
  %18 = getelementptr i8, ptr %17, i64 -40
  %19 = load i64, ptr %18, align 8
  %20 = getelementptr inbounds i8, ptr %0, i64 %19
  store ptr %16, ptr %20, align 8
  %21 = getelementptr inbounds i8, ptr %0, i64 32
  %22 = load ptr, ptr %21, align 8
  %.not.i = icmp eq ptr %22, null
  br i1 %.not.i, label %27, label %23

23:                                               ; preds = %2
  %24 = load ptr, ptr %22, align 8
  %25 = getelementptr inbounds i8, ptr %24, i64 56
  %26 = load ptr, ptr %25, align 8
  tail call void %26(ptr noundef nonnull align 8 dereferenceable(720) %22) #23
  store ptr null, ptr %21, align 8
  br label %27

27:                                               ; preds = %23, %2
  %28 = getelementptr inbounds i8, ptr %0, i64 40
  %29 = load ptr, ptr %28, align 8
  %.not2.i = icmp eq ptr %29, null
  br i1 %.not2.i, label %_ZN13colvarbias_ti16clear_state_dataEv.exit, label %30

30:                                               ; preds = %27
  %31 = load ptr, ptr %29, align 8
  %32 = getelementptr inbounds i8, ptr %31, i64 56
  %33 = load ptr, ptr %32, align 8
  tail call void %33(ptr noundef nonnull align 8 dereferenceable(698) %29) #23
  store ptr null, ptr %28, align 8
  br label %_ZN13colvarbias_ti16clear_state_dataEv.exit

_ZN13colvarbias_ti16clear_state_dataEv.exit:      ; preds = %27, %30
  %34 = getelementptr inbounds i8, ptr %0, i64 48
  %35 = load ptr, ptr %34, align 8
  %.not.i.i.i = icmp eq ptr %35, null
  br i1 %.not.i.i.i, label %_ZNSt6vectorIiSaIiEED2Ev.exit, label %36

36:                                               ; preds = %_ZN13colvarbias_ti16clear_state_dataEv.exit
  tail call void @_ZdlPv(ptr noundef nonnull %35) #24
  br label %_ZNSt6vectorIiSaIiEED2Ev.exit

_ZNSt6vectorIiSaIiEED2Ev.exit:                    ; preds = %_ZN13colvarbias_ti16clear_state_dataEv.exit, %36
  %37 = getelementptr inbounds i8, ptr %0, i64 8
  tail call void @_ZNSt6vectorI11colvarvalueSaIS0_EED2Ev(ptr noundef nonnull align 8 dereferenceable(24) %37) #23
  ret void
}